; ModuleID = '28/653.c'
source_filename = "28/653.c"
target datalayout = "e-m:e-p270:32:32-p271:32:32-p272:64:64-i64:64-f80:128-n8:16:32:64-S128"
target triple = "x86_64-pc-linux-gnu"

@.str = private unnamed_addr constant [4 x i8] c"%d,\00", align 1
@.str.1 = private unnamed_addr constant [3 x i8] c"%d\00", align 1

; Function Attrs: noinline nounwind uwtable
define dso_local void @main() #0 {
  %1 = alloca [20000 x i8], align 16
  %2 = alloca [20001 x i8], align 16
  %3 = alloca [301 x i32], align 16
  %4 = alloca [301 x i32], align 16
  %5 = alloca i32, align 4
  %6 = alloca i32, align 4
  %7 = alloca i32, align 4
  %8 = alloca i32, align 4
  %9 = bitcast [20000 x i8]* %1 to i8*
  call void @llvm.memset.p0i8.i64(i8* align 16 %9, i8 0, i64 20000, i1 false)
  %10 = bitcast i8* %9 to [20000 x i8]*
  %11 = getelementptr inbounds [20000 x i8], [20000 x i8]* %10, i32 0, i32 0
  store i8 32, i8* %11, align 16
  %12 = bitcast [20001 x i8]* %2 to i8*
  call void @llvm.memset.p0i8.i64(i8* align 16 %12, i8 0, i64 20001, i1 false)
  %13 = bitcast i8* %12 to [20001 x i8]*
  %14 = getelementptr inbounds [20001 x i8], [20001 x i8]* %13, i32 0, i32 0
  store i8 32, i8* %14, align 16
  %15 = getelementptr inbounds [20001 x i8], [20001 x i8]* %13, i32 0, i32 1
  store i8 32, i8* %15, align 1
  store i32 0, i32* %6, align 4
  store i32 0, i32* %7, align 4
  %16 = getelementptr inbounds [20000 x i8], [20000 x i8]* %1, i64 0, i64 0
  %17 = call i32 (i8*, ...) bitcast (i32 (...)* @gets to i32 (i8*, ...)*)(i8* %16)
  %18 = getelementptr inbounds [20000 x i8], [20000 x i8]* %1, i64 0, i64 0
  %19 = getelementptr inbounds [20001 x i8], [20001 x i8]* %2, i64 0, i64 0
  %20 = call i8* @strcat(i8* %18, i8* %19) #5
  %21 = getelementptr inbounds [20001 x i8], [20001 x i8]* %2, i64 0, i64 0
  %22 = getelementptr inbounds [20000 x i8], [20000 x i8]* %1, i64 0, i64 0
  %23 = call i8* @strcat(i8* %21, i8* %22) #5
  %24 = getelementptr inbounds [20001 x i8], [20001 x i8]* %2, i64 0, i64 0
  %25 = call i64 @strlen(i8* %24) #6
  %26 = trunc i64 %25 to i32
  store i32 %26, i32* %8, align 4
  store i32 1, i32* %5, align 4
  br label %27

27:                                               ; preds = %77, %0
  %28 = load i32, i32* %5, align 4
  %29 = load i32, i32* %8, align 4
  %30 = sub nsw i32 %29, 1
  %31 = icmp slt i32 %28, %30
  br i1 %31, label %32, label %80

32:                                               ; preds = %27
  %33 = load i32, i32* %5, align 4
  %34 = sext i32 %33 to i64
  %35 = getelementptr inbounds [20001 x i8], [20001 x i8]* %2, i64 0, i64 %34
  %36 = load i8, i8* %35, align 1
  %37 = sext i8 %36 to i32
  %38 = icmp ne i32 %37, 32
  br i1 %38, label %39, label %54

39:                                               ; preds = %32
  %40 = load i32, i32* %5, align 4
  %41 = sub nsw i32 %40, 1
  %42 = sext i32 %41 to i64
  %43 = getelementptr inbounds [20001 x i8], [20001 x i8]* %2, i64 0, i64 %42
  %44 = load i8, i8* %43, align 1
  %45 = sext i8 %44 to i32
  %46 = icmp eq i32 %45, 32
  br i1 %46, label %47, label %54

47:                                               ; preds = %39
  %48 = load i32, i32* %5, align 4
  %49 = load i32, i32* %6, align 4
  %50 = sext i32 %49 to i64
  %51 = getelementptr inbounds [301 x i32], [301 x i32]* %3, i64 0, i64 %50
  store i32 %48, i32* %51, align 4
  %52 = load i32, i32* %6, align 4
  %53 = add nsw i32 %52, 1
  store i32 %53, i32* %6, align 4
  br label %54

54:                                               ; preds = %47, %39, %32
  %55 = load i32, i32* %5, align 4
  %56 = sext i32 %55 to i64
  %57 = getelementptr inbounds [20001 x i8], [20001 x i8]* %2, i64 0, i64 %56
  %58 = load i8, i8* %57, align 1
  %59 = sext i8 %58 to i32
  %60 = icmp ne i32 %59, 32
  br i1 %60, label %61, label %76

61:                                               ; preds = %54
  %62 = load i32, i32* %5, align 4
  %63 = add nsw i32 %62, 1
  %64 = sext i32 %63 to i64
  %65 = getelementptr inbounds [20001 x i8], [20001 x i8]* %2, i64 0, i64 %64
  %66 = load i8, i8* %65, align 1
  %67 = sext i8 %66 to i32
  %68 = icmp eq i32 %67, 32
  br i1 %68, label %69, label %76

69:                                               ; preds = %61
  %70 = load i32, i32* %5, align 4
  %71 = load i32, i32* %7, align 4
  %72 = sext i32 %71 to i64
  %73 = getelementptr inbounds [301 x i32], [301 x i32]* %4, i64 0, i64 %72
  store i32 %70, i32* %73, align 4
  %74 = load i32, i32* %7, align 4
  %75 = add nsw i32 %74, 1
  store i32 %75, i32* %7, align 4
  br label %76

76:                                               ; preds = %69, %61, %54
  br label %77

77:                                               ; preds = %76
  %78 = load i32, i32* %5, align 4
  %79 = add nsw i32 %78, 1
  store i32 %79, i32* %5, align 4
  br label %27

80:                                               ; preds = %27
  store i32 0, i32* %5, align 4
  br label %81

81:                                               ; preds = %98, %80
  %82 = load i32, i32* %5, align 4
  %83 = load i32, i32* %6, align 4
  %84 = sub nsw i32 %83, 1
  %85 = icmp slt i32 %82, %84
  br i1 %85, label %86, label %101

86:                                               ; preds = %81
  %87 = load i32, i32* %5, align 4
  %88 = sext i32 %87 to i64
  %89 = getelementptr inbounds [301 x i32], [301 x i32]* %4, i64 0, i64 %88
  %90 = load i32, i32* %89, align 4
  %91 = load i32, i32* %5, align 4
  %92 = sext i32 %91 to i64
  %93 = getelementptr inbounds [301 x i32], [301 x i32]* %3, i64 0, i64 %92
  %94 = load i32, i32* %93, align 4
  %95 = sub nsw i32 %90, %94
  %96 = add nsw i32 %95, 1
  %97 = call i32 (i8*, ...) @printf(i8* getelementptr inbounds ([4 x i8], [4 x i8]* @.str, i64 0, i64 0), i32 %96)
  br label %98

98:                                               ; preds = %86
  %99 = load i32, i32* %5, align 4
  %100 = add nsw i32 %99, 1
  store i32 %100, i32* %5, align 4
  br label %81

101:                                              ; preds = %81
  %102 = load i32, i32* %6, align 4
  %103 = sub nsw i32 %102, 1
  %104 = sext i32 %103 to i64
  %105 = getelementptr inbounds [301 x i32], [301 x i32]* %4, i64 0, i64 %104
  %106 = load i32, i32* %105, align 4
  %107 = load i32, i32* %6, align 4
  %108 = sub nsw i32 %107, 1
  %109 = sext i32 %108 to i64
  %110 = getelementptr inbounds [301 x i32], [301 x i32]* %3, i64 0, i64 %109
  %111 = load i32, i32* %110, align 4
  %112 = sub nsw i32 %106, %111
  %113 = add nsw i32 %112, 1
  %114 = call i32 (i8*, ...) @printf(i8* getelementptr inbounds ([3 x i8], [3 x i8]* @.str.1, i64 0, i64 0), i32 %113)
  ret void
}

; Function Attrs: argmemonly nounwind willreturn
declare void @llvm.memset.p0i8.i64(i8* nocapture writeonly, i8, i64, i1 immarg) #1

declare dso_local i32 @gets(...) #2

; Function Attrs: nounwind
declare dso_local i8* @strcat(i8*, i8*) #3

; Function Attrs: nounwind readonly
declare dso_local i64 @strlen(i8*) #4

declare dso_local i32 @printf(i8*, ...) #2


!llvm.module.flags = !{!0}
!llvm.ident = !{!1}

!0 = !{i32 1, !"wchar_size", i32 4}
!1 = !{!"clang version 10.0.0-4ubuntu1 "}
